target datalayout = "e-m:e-p270:32:32-p271:32:32-p272:64:64-i64:64-i128:128-f80:128-n8:16:32:64-S128"
target triple = "x86_64-pc-linux-gnu"

%"struct.Luau::Position" = type { i32, i32 }
%"class.Luau::AstVisitor" = type { ptr }
%"class.Luau::AstNode" = type <{ ptr, i32, %"struct.Luau::Location", [4 x i8] }>
%"struct.Luau::Location" = type { %"struct.Luau::Position", %"struct.Luau::Position" }
%"class.Luau::AstStat.base" = type { %"class.Luau::AstNode.base", i8 }
%"class.Luau::AstNode.base" = type <{ ptr, i32, %"struct.Luau::Location" }>
%"struct.Luau::SourceModule" = type { %"class.std::__cxx11::basic_string", %"class.std::__cxx11::basic_string", i32, [4 x i8], %"class.std::optional.15", i8, %"class.std::shared_ptr", %"class.std::shared_ptr.25", %"class.std::vector.28", ptr, %"class.std::optional.33", %"class.std::vector.41", %"class.std::vector.46" }
%"class.std::__cxx11::basic_string" = type { %"struct.std::__cxx11::basic_string<char>::_Alloc_hider", i64, %union.anon }
%"struct.std::__cxx11::basic_string<char>::_Alloc_hider" = type { ptr }
%union.anon = type { i64, [8 x i8] }
%"class.std::optional.15" = type { %"struct.std::_Optional_base.16" }
%"struct.std::_Optional_base.16" = type { %"struct.std::_Optional_payload.18" }
%"struct.std::_Optional_payload.18" = type { %"struct.std::_Optional_payload.base.22", [7 x i8] }
%"struct.std::_Optional_payload.base.22" = type { %"struct.std::_Optional_payload_base.base.21" }
%"struct.std::_Optional_payload_base.base.21" = type <{ %"union.std::_Optional_payload_base<std::__cxx11::basic_string<char>>::_Storage", i8 }>
%"union.std::_Optional_payload_base<std::__cxx11::basic_string<char>>::_Storage" = type { %"class.std::__cxx11::basic_string" }
%"class.std::shared_ptr" = type { %"class.std::__shared_ptr" }
%"class.std::__shared_ptr" = type { ptr, %"class.std::__shared_count" }
%"class.std::__shared_count" = type { ptr }
%"class.std::shared_ptr.25" = type { %"class.std::__shared_ptr.26" }
%"class.std::__shared_ptr.26" = type { ptr, %"class.std::__shared_count" }
%"class.std::vector.28" = type { %"struct.std::_Vector_base.29" }
%"struct.std::_Vector_base.29" = type { %"struct.std::_Vector_base<Luau::ParseError, std::allocator<Luau::ParseError>>::_Vector_impl" }
%"struct.std::_Vector_base<Luau::ParseError, std::allocator<Luau::ParseError>>::_Vector_impl" = type { %"struct.std::_Vector_base<Luau::ParseError, std::allocator<Luau::ParseError>>::_Vector_impl_data" }
%"struct.std::_Vector_base<Luau::ParseError, std::allocator<Luau::ParseError>>::_Vector_impl_data" = type { ptr, ptr, ptr }
%"class.std::optional.33" = type { %"struct.std::_Optional_base.34" }
%"struct.std::_Optional_base.34" = type { %"struct.std::_Optional_payload.36" }
%"struct.std::_Optional_payload.36" = type { %"struct.std::_Optional_payload_base.base.38", [3 x i8] }
%"struct.std::_Optional_payload_base.base.38" = type <{ %"union.std::_Optional_payload_base<Luau::Mode>::_Storage", i8 }>
%"union.std::_Optional_payload_base<Luau::Mode>::_Storage" = type { i32 }
%"class.std::vector.41" = type { %"struct.std::_Vector_base.42" }
%"struct.std::_Vector_base.42" = type { %"struct.std::_Vector_base<Luau::HotComment, std::allocator<Luau::HotComment>>::_Vector_impl" }
%"struct.std::_Vector_base<Luau::HotComment, std::allocator<Luau::HotComment>>::_Vector_impl" = type { %"struct.std::_Vector_base<Luau::HotComment, std::allocator<Luau::HotComment>>::_Vector_impl_data" }
%"struct.std::_Vector_base<Luau::HotComment, std::allocator<Luau::HotComment>>::_Vector_impl_data" = type { ptr, ptr, ptr }
%"class.std::vector.46" = type { %"struct.std::_Vector_base.47" }
%"struct.std::_Vector_base.47" = type { %"struct.std::_Vector_base<Luau::Comment, std::allocator<Luau::Comment>>::_Vector_impl" }
%"struct.std::_Vector_base<Luau::Comment, std::allocator<Luau::Comment>>::_Vector_impl" = type { %"struct.std::_Vector_base<Luau::Comment, std::allocator<Luau::Comment>>::_Vector_impl_data" }
%"struct.std::_Vector_base<Luau::Comment, std::allocator<Luau::Comment>>::_Vector_impl_data" = type { ptr, ptr, ptr }
%"class.Luau::AstStatBlock" = type <{ %"class.Luau::AstStat.base", [3 x i8], %"struct.Luau::AstArray.51", i8, [7 x i8] }>
%"struct.Luau::AstArray.51" = type { ptr, i64 }
%"struct.Luau::ExprOrLocal" = type { ptr, ptr }
%"struct.Luau::(anonymous namespace)::FindExprOrLocal" = type { %"class.Luau::AstVisitor", %"struct.Luau::Position", %"struct.Luau::ExprOrLocal" }

; Function Attrs: mustprogress nounwind uwtable
define linkonce_odr dso_local noundef zeroext i1 @_ZNK4Luau8PositionltERKS0_(ptr noundef nonnull align 4 dereferenceable(8) %0, ptr noundef nonnull align 4 dereferenceable(8) %1) #2 comdat align 2 {
  %3 = alloca i1, align 1
  %4 = alloca ptr, align 8
  %5 = alloca ptr, align 8
  store ptr %0, ptr %4, align 8, !tbaa !49
  store ptr %1, ptr %5, align 8, !tbaa !49
  %6 = load ptr, ptr %4, align 8
  %7 = getelementptr inbounds nuw %"struct.Luau::Position", ptr %6, i32 0, i32 0
  %8 = load i32, ptr %7, align 4, !tbaa !52
  %9 = load ptr, ptr %5, align 8, !tbaa !49
  %10 = getelementptr inbounds nuw %"struct.Luau::Position", ptr %9, i32 0, i32 0
  %11 = load i32, ptr %10, align 4, !tbaa !52
  %12 = icmp eq i32 %8, %11
  br i1 %12, label %13, label %20

13:                                               ; preds = %2
  %14 = getelementptr inbounds nuw %"struct.Luau::Position", ptr %6, i32 0, i32 1
  %15 = load i32, ptr %14, align 4, !tbaa !51
  %16 = load ptr, ptr %5, align 8, !tbaa !49
  %17 = getelementptr inbounds nuw %"struct.Luau::Position", ptr %16, i32 0, i32 1
  %18 = load i32, ptr %17, align 4, !tbaa !51
  %19 = icmp ult i32 %15, %18
  store i1 %19, ptr %3, align 1
  br label %27

20:                                               ; preds = %2
  %21 = getelementptr inbounds nuw %"struct.Luau::Position", ptr %6, i32 0, i32 0
  %22 = load i32, ptr %21, align 4, !tbaa !52
  %23 = load ptr, ptr %5, align 8, !tbaa !49
  %24 = getelementptr inbounds nuw %"struct.Luau::Position", ptr %23, i32 0, i32 0
  %25 = load i32, ptr %24, align 4, !tbaa !52
  %26 = icmp ult i32 %22, %25
  store i1 %26, ptr %3, align 1
  br label %27

27:                                               ; preds = %20, %13
  %28 = load i1, ptr %3, align 1
  ret i1 %28
}

; Function Attrs: mustprogress nounwind uwtable
define linkonce_odr dso_local noundef zeroext i1 @_ZNK4Luau8PositioneqERKS0_(ptr noundef nonnull align 4 dereferenceable(8) %0, ptr noundef nonnull align 4 dereferenceable(8) %1) #2 comdat align 2 {
  %3 = alloca ptr, align 8
  %4 = alloca ptr, align 8
  store ptr %0, ptr %3, align 8, !tbaa !49
  store ptr %1, ptr %4, align 8, !tbaa !49
  %5 = load ptr, ptr %3, align 8
  %6 = getelementptr inbounds nuw %"struct.Luau::Position", ptr %5, i32 0, i32 1
  %7 = load i32, ptr %6, align 4, !tbaa !51
  %8 = load ptr, ptr %4, align 8, !tbaa !49
  %9 = getelementptr inbounds nuw %"struct.Luau::Position", ptr %8, i32 0, i32 1
  %10 = load i32, ptr %9, align 4, !tbaa !51
  %11 = icmp eq i32 %7, %10
  br i1 %11, label %12, label %19

12:                                               ; preds = %2
  %13 = getelementptr inbounds nuw %"struct.Luau::Position", ptr %5, i32 0, i32 0
  %14 = load i32, ptr %13, align 4, !tbaa !52
  %15 = load ptr, ptr %4, align 8, !tbaa !49
  %16 = getelementptr inbounds nuw %"struct.Luau::Position", ptr %15, i32 0, i32 0
  %17 = load i32, ptr %16, align 4, !tbaa !52
  %18 = icmp eq i32 %14, %17
  br label %19

19:                                               ; preds = %12, %2
  %20 = phi i1 [ false, %2 ], [ %18, %12 ]
  ret i1 %20
}

; Function Attrs: mustprogress nounwind uwtable
define linkonce_odr dso_local noundef zeroext i1 @_ZNK4Luau8PositiongtERKS0_(ptr noundef nonnull align 4 dereferenceable(8) %0, ptr noundef nonnull align 4 dereferenceable(8) %1) #2 comdat align 2 {
  %3 = alloca i1, align 1
  %4 = alloca ptr, align 8
  %5 = alloca ptr, align 8
  store ptr %0, ptr %4, align 8, !tbaa !49
  store ptr %1, ptr %5, align 8, !tbaa !49
  %6 = load ptr, ptr %4, align 8
  %7 = getelementptr inbounds nuw %"struct.Luau::Position", ptr %6, i32 0, i32 0
  %8 = load i32, ptr %7, align 4, !tbaa !52
  %9 = load ptr, ptr %5, align 8, !tbaa !49
  %10 = getelementptr inbounds nuw %"struct.Luau::Position", ptr %9, i32 0, i32 0
  %11 = load i32, ptr %10, align 4, !tbaa !52
  %12 = icmp eq i32 %8, %11
  br i1 %12, label %13, label %20

13:                                               ; preds = %2
  %14 = getelementptr inbounds nuw %"struct.Luau::Position", ptr %6, i32 0, i32 1
  %15 = load i32, ptr %14, align 4, !tbaa !51
  %16 = load ptr, ptr %5, align 8, !tbaa !49
  %17 = getelementptr inbounds nuw %"struct.Luau::Position", ptr %16, i32 0, i32 1
  %18 = load i32, ptr %17, align 4, !tbaa !51
  %19 = icmp ugt i32 %15, %18
  store i1 %19, ptr %3, align 1
  br label %27

20:                                               ; preds = %2
  %21 = getelementptr inbounds nuw %"struct.Luau::Position", ptr %6, i32 0, i32 0
  %22 = load i32, ptr %21, align 4, !tbaa !52
  %23 = load ptr, ptr %5, align 8, !tbaa !49
  %24 = getelementptr inbounds nuw %"struct.Luau::Position", ptr %23, i32 0, i32 0
  %25 = load i32, ptr %24, align 4, !tbaa !52
  %26 = icmp ugt i32 %22, %25
  store i1 %26, ptr %3, align 1
  br label %27

27:                                               ; preds = %20, %13
  %28 = load i1, ptr %3, align 1
  ret i1 %28
}

; Function Attrs: mustprogress nounwind uwtable
define linkonce_odr dso_local noundef zeroext i1 @_ZNK4Luau8PositionleERKS0_(ptr noundef nonnull align 4 dereferenceable(8) %0, ptr noundef nonnull align 4 dereferenceable(8) %1) #2 comdat align 2 {
  %3 = alloca ptr, align 8
  %4 = alloca ptr, align 8
  store ptr %0, ptr %3, align 8, !tbaa !49
  store ptr %1, ptr %4, align 8, !tbaa !49
  %5 = load ptr, ptr %3, align 8
  %6 = load ptr, ptr %4, align 8, !tbaa !49
  %7 = call noundef zeroext i1 @_ZNK4Luau8PositioneqERKS0_(ptr noundef nonnull align 4 dereferenceable(8) %5, ptr noundef nonnull align 4 dereferenceable(8) %6)
  br i1 %7, label %11, label %8

8:                                                ; preds = %2
  %9 = load ptr, ptr %4, align 8, !tbaa !49
  %10 = call noundef zeroext i1 @_ZNK4Luau8PositionltERKS0_(ptr noundef nonnull align 4 dereferenceable(8) %5, ptr noundef nonnull align 4 dereferenceable(8) %9)
  br label %11

11:                                               ; preds = %8, %2
  %12 = phi i1 [ true, %2 ], [ %10, %8 ]
  ret i1 %12
}

; Function Attrs: mustprogress nounwind uwtable
define linkonce_odr dso_local noundef ptr @_ZNK4Luau8AstArrayIPNS_7AstStatEE3endEv(ptr noundef nonnull align 8 dereferenceable(16) %0) #2 comdat align 2 {
  %2 = alloca ptr, align 8
  store ptr %0, ptr %2, align 8, !tbaa !103
  %3 = load ptr, ptr %2, align 8
  %4 = getelementptr inbounds nuw %"struct.Luau::AstArray.51", ptr %3, i32 0, i32 0
  %5 = load ptr, ptr %4, align 8, !tbaa !379
  %6 = getelementptr inbounds nuw %"struct.Luau::AstArray.51", ptr %3, i32 0, i32 1
  %7 = load i64, ptr %6, align 8, !tbaa !381
  %8 = getelementptr inbounds nuw ptr, ptr %5, i64 %7
  ret ptr %8
}

; Function Attrs: mustprogress nounwind uwtable
define linkonce_odr dso_local noundef ptr @_ZNK4Luau8AstArrayIPNS_7AstStatEE5beginEv(ptr noundef nonnull align 8 dereferenceable(16) %0) #2 comdat align 2 {
  %2 = alloca ptr, align 8
  store ptr %0, ptr %2, align 8, !tbaa !103
  %3 = load ptr, ptr %2, align 8
  %4 = getelementptr inbounds nuw %"struct.Luau::AstArray.51", ptr %3, i32 0, i32 0
  %5 = load ptr, ptr %4, align 8, !tbaa !379
  ret ptr %5
}

; Function Attrs: inlinehint mustprogress nounwind uwtable
define linkonce_odr dso_local void @_ZN4Luau11ExprOrLocalC2Ev(ptr noundef nonnull align 8 dereferenceable(16) %0) unnamed_addr #3 comdat align 2 {
  %2 = alloca ptr, align 8
  store ptr %0, ptr %2, align 8, !tbaa !449
  %3 = load ptr, ptr %2, align 8
  %4 = getelementptr inbounds nuw %"struct.Luau::ExprOrLocal", ptr %3, i32 0, i32 0
  store ptr null, ptr %4, align 8, !tbaa !451
  %5 = getelementptr inbounds nuw %"struct.Luau::ExprOrLocal", ptr %3, i32 0, i32 1
  store ptr null, ptr %5, align 8, !tbaa !453
  ret void
}

; Function Attrs: inlinehint mustprogress nounwind uwtable
define linkonce_odr dso_local void @_ZN4Luau10AstVisitorC2Ev(ptr noundef nonnull align 8 dereferenceable(8) %0) unnamed_addr #3 comdat align 2 {
  %2 = alloca ptr, align 8
  store ptr %0, ptr %2, align 8, !tbaa !28
  %3 = load ptr, ptr %2, align 8
  store ptr getelementptr inbounds inrange(-16, 496) ({ [64 x ptr] }, ptr @_ZTVN4Luau10AstVisitorE, i32 0, i32 0, i32 2), ptr %3, align 8, !tbaa !13
  ret void
}

; Function Attrs: mustprogress nounwind uwtable
define linkonce_odr dso_local void @_ZN4Luau10AstVisitorD2Ev(ptr noundef nonnull align 8 dereferenceable(8) %0) unnamed_addr #2 comdat align 2 {
  %2 = alloca ptr, align 8
  store ptr %0, ptr %2, align 8, !tbaa !28
  ret void
}

; Function Attrs: mustprogress uwtable
define internal noundef zeroext i1 @_ZN4Luau12_GLOBAL__N_115FindExprOrLocal5visitEPNS_12AstStatBlockE(ptr noundef nonnull align 8 dereferenceable(32) %0, ptr noundef %1) unnamed_addr #5 align 2 {
  %3 = alloca ptr, align 8
  %4 = alloca ptr, align 8
  %5 = alloca ptr, align 8
  %6 = alloca ptr, align 8
  %7 = alloca ptr, align 8
  %8 = alloca i32, align 4
  %9 = alloca ptr, align 8
  store ptr %0, ptr %3, align 8, !tbaa !182
  store ptr %1, ptr %4, align 8, !tbaa !95
  %10 = load ptr, ptr %3, align 8
  call void @llvm.lifetime.start.p0(i64 8, ptr %5) #18
  %11 = load ptr, ptr %4, align 8, !tbaa !95
  %12 = getelementptr inbounds nuw %"class.Luau::AstStatBlock", ptr %11, i32 0, i32 2
  store ptr %12, ptr %5, align 8, !tbaa !103
  call void @llvm.lifetime.start.p0(i64 8, ptr %6) #18
  %13 = load ptr, ptr %5, align 8, !tbaa !103
  %14 = call noundef ptr @_ZNK4Luau8AstArrayIPNS_7AstStatEE5beginEv(ptr noundef nonnull align 8 dereferenceable(16) %13)
  store ptr %14, ptr %6, align 8, !tbaa !105
  call void @llvm.lifetime.start.p0(i64 8, ptr %7) #18
  %15 = load ptr, ptr %5, align 8, !tbaa !103
  %16 = call noundef ptr @_ZNK4Luau8AstArrayIPNS_7AstStatEE3endEv(ptr noundef nonnull align 8 dereferenceable(16) %15)
  store ptr %16, ptr %7, align 8, !tbaa !105
  br label %17

17:                                               ; preds = %46, %2
  %18 = load ptr, ptr %6, align 8, !tbaa !105
  %19 = load ptr, ptr %7, align 8, !tbaa !105
  %20 = icmp ne ptr %18, %19
  br i1 %20, label %22, label %21

21:                                               ; preds = %17
  store i32 2, ptr %8, align 4
  br label %49

22:                                               ; preds = %17
  call void @llvm.lifetime.start.p0(i64 8, ptr %9) #18
  %23 = load ptr, ptr %6, align 8, !tbaa !105
  %24 = load ptr, ptr %23, align 8, !tbaa !107
  store ptr %24, ptr %9, align 8, !tbaa !107
  %25 = load ptr, ptr %9, align 8, !tbaa !107
  %26 = getelementptr inbounds nuw %"class.Luau::AstNode", ptr %25, i32 0, i32 2
  %27 = getelementptr inbounds nuw %"struct.Luau::Location", ptr %26, i32 0, i32 1
  %28 = getelementptr inbounds nuw %"struct.Luau::(anonymous namespace)::FindExprOrLocal", ptr %10, i32 0, i32 1
  %29 = call noundef zeroext i1 @_ZNK4Luau8PositionleERKS0_(ptr noundef nonnull align 4 dereferenceable(8) %27, ptr noundef nonnull align 4 dereferenceable(8) %28)
  br i1 %29, label %30, label %31

30:                                               ; preds = %22
  store i32 3, ptr %8, align 4
  br label %43

31:                                               ; preds = %22
  %32 = load ptr, ptr %9, align 8, !tbaa !107
  %33 = getelementptr inbounds nuw %"class.Luau::AstNode", ptr %32, i32 0, i32 2
  %34 = getelementptr inbounds nuw %"struct.Luau::Location", ptr %33, i32 0, i32 0
  %35 = getelementptr inbounds nuw %"struct.Luau::(anonymous namespace)::FindExprOrLocal", ptr %10, i32 0, i32 1
  %36 = call noundef zeroext i1 @_ZNK4Luau8PositiongtERKS0_(ptr noundef nonnull align 4 dereferenceable(8) %34, ptr noundef nonnull align 4 dereferenceable(8) %35)
  br i1 %36, label %37, label %38

37:                                               ; preds = %31
  store i32 2, ptr %8, align 4
  br label %43

38:                                               ; preds = %31
  %39 = load ptr, ptr %9, align 8, !tbaa !107
  %40 = load ptr, ptr %39, align 8, !tbaa !13
  %41 = getelementptr inbounds ptr, ptr %40, i64 0
  %42 = load ptr, ptr %41, align 8
  call void %42(ptr noundef nonnull align 8 dereferenceable(28) %39, ptr noundef %10)
  store i32 0, ptr %8, align 4
  br label %43

43:                                               ; preds = %38, %37, %30
  call void @llvm.lifetime.end.p0(i64 8, ptr %9) #18
  %44 = load i32, ptr %8, align 4
  switch i32 %44, label %49 [
    i32 0, label %45
    i32 3, label %46
  ]

45:                                               ; preds = %43
  br label %46

46:                                               ; preds = %45, %43
  %47 = load ptr, ptr %6, align 8, !tbaa !105
  %48 = getelementptr inbounds nuw ptr, ptr %47, i32 1
  store ptr %48, ptr %6, align 8, !tbaa !105
  br label %17

49:                                               ; preds = %43, %21
  call void @llvm.lifetime.end.p0(i64 8, ptr %7) #18
  call void @llvm.lifetime.end.p0(i64 8, ptr %6) #18
  call void @llvm.lifetime.end.p0(i64 8, ptr %5) #18
  br label %50

50:                                               ; preds = %49
  ret i1 false
}

; Function Attrs: mustprogress nounwind uwtable
define internal void @_ZN4Luau12_GLOBAL__N_115FindExprOrLocalC2ENS_8PositionE(ptr noundef nonnull align 8 dereferenceable(32) %0, i64 %1) unnamed_addr #2 align 2 {
  %3 = alloca %"struct.Luau::Position", align 4
  %4 = alloca ptr, align 8
  store i64 %1, ptr %3, align 4
  store ptr %0, ptr %4, align 8, !tbaa !182
  %5 = load ptr, ptr %4, align 8
  call void @_ZN4Luau10AstVisitorC2Ev(ptr noundef nonnull align 8 dereferenceable(8) %5) #18
  store ptr getelementptr inbounds inrange(-16, 496) ({ [64 x ptr] }, ptr @_ZTVN4Luau12_GLOBAL__N_115FindExprOrLocalE, i32 0, i32 0, i32 2), ptr %5, align 8, !tbaa !13
  %6 = getelementptr inbounds nuw %"struct.Luau::(anonymous namespace)::FindExprOrLocal", ptr %5, i32 0, i32 1
  call void @llvm.memcpy.p0.p0.i64(ptr align 8 %6, ptr align 4 %3, i64 8, i1 false), !tbaa.struct !15
  %7 = getelementptr inbounds nuw %"struct.Luau::(anonymous namespace)::FindExprOrLocal", ptr %5, i32 0, i32 2
  call void @_ZN4Luau11ExprOrLocalC2Ev(ptr noundef nonnull align 8 dereferenceable(16) %7) #18
  ret void
}

; Function Attrs: mustprogress uwtable
define dso_local { ptr, ptr } @_ZN4Luau25findExprOrLocalAtPositionERKNS_12SourceModuleENS_8PositionE(ptr noundef nonnull align 8 dereferenceable(240) %0, i64 %1) #5 personality ptr @__gxx_personality_v0 {
  %3 = alloca %"struct.Luau::ExprOrLocal", align 8
  %4 = alloca %"struct.Luau::Position", align 4
  %5 = alloca ptr, align 8
  %6 = alloca %"struct.Luau::(anonymous namespace)::FindExprOrLocal", align 8
  %7 = alloca %"struct.Luau::Position", align 4
  %8 = alloca ptr, align 8
  %9 = alloca i32, align 4
  store i64 %1, ptr %4, align 4
  store ptr %0, ptr %5, align 8, !tbaa !53
  call void @llvm.lifetime.start.p0(i64 32, ptr %6) #18
  call void @llvm.memcpy.p0.p0.i64(ptr align 4 %7, ptr align 4 %4, i64 8, i1 false), !tbaa.struct !15
  %10 = load i64, ptr %7, align 4
  call void @_ZN4Luau12_GLOBAL__N_115FindExprOrLocalC2ENS_8PositionE(ptr noundef nonnull align 8 dereferenceable(32) %6, i64 %10)
  %11 = load ptr, ptr %5, align 8, !tbaa !53
  %12 = getelementptr inbounds nuw %"struct.Luau::SourceModule", ptr %11, i32 0, i32 9
  %13 = load ptr, ptr %12, align 8, !tbaa !55
  %14 = invoke noundef zeroext i1 @_ZN4Luau12_GLOBAL__N_115FindExprOrLocal5visitEPNS_12AstStatBlockE(ptr noundef nonnull align 8 dereferenceable(32) %6, ptr noundef %13)
          to label %15 unwind label %18

15:                                               ; preds = %2
  %16 = getelementptr inbounds nuw %"struct.Luau::(anonymous namespace)::FindExprOrLocal", ptr %6, i32 0, i32 2
  call void @llvm.memcpy.p0.p0.i64(ptr align 8 %3, ptr align 8 %16, i64 16, i1 false), !tbaa.struct !181
  call void @_ZN4Luau10AstVisitorD2Ev(ptr noundef nonnull align 8 dereferenceable(32) %6) #18
  call void @llvm.lifetime.end.p0(i64 32, ptr %6) #18
  %17 = load { ptr, ptr }, ptr %3, align 8
  ret { ptr, ptr } %17

18:                                               ; preds = %2
  %19 = landingpad { ptr, i32 }
          cleanup
  %20 = extractvalue { ptr, i32 } %19, 0
  store ptr %20, ptr %8, align 8
  %21 = extractvalue { ptr, i32 } %19, 1
  store i32 %21, ptr %9, align 4
  call void @_ZN4Luau10AstVisitorD2Ev(ptr noundef nonnull align 8 dereferenceable(32) %6) #18
  call void @llvm.lifetime.end.p0(i64 32, ptr %6) #18
  br label %22

22:                                               ; preds = %18
  %23 = load ptr, ptr %8, align 8
  %24 = load i32, ptr %9, align 4
  %25 = insertvalue { ptr, i32 } poison, ptr %23, 0
  %26 = insertvalue { ptr, i32 } %25, i32 %24, 1
  resume { ptr, i32 } %26
}