; Function Attrs: mustprogress uwtable
define dso_local { ptr, ptr } @_ZN4Luau25findExprOrLocalAtPositionERKNS_12SourceModuleENS_8PositionE(ptr noundef nonnull readonly align 8 captures(none) dereferenceable(240) %0, i64 %1) local_unnamed_addr #4 personality ptr @__gxx_personality_v0 {
  %3 = alloca %"struct.Luau::(anonymous namespace)::FindExprOrLocal", align 8
  call void @llvm.lifetime.start.p0(i64 32, ptr nonnull %3) #24
  store ptr getelementptr inbounds nuw inrange(-16, 496) (i8, ptr @_ZTVN4Luau12_GLOBAL__N_115FindExprOrLocalE, i64 16), ptr %3, align 8, !tbaa !8
  %4 = getelementptr inbounds nuw i8, ptr %3, i64 8
  store i64 %1, ptr %4, align 8
  %5 = getelementptr inbounds nuw i8, ptr %3, i64 16
  call void @llvm.memset.p0.i64(ptr noundef nonnull align 8 dereferenceable(16) %5, i8 0, i64 16, i1 false)
  %6 = getelementptr inbounds nuw i8, ptr %0, i64 176
  %7 = load ptr, ptr %6, align 8, !tbaa !39
  %8 = getelementptr inbounds nuw i8, ptr %7, i64 32
  %9 = load ptr, ptr %8, align 8, !tbaa !83
  %10 = getelementptr inbounds nuw i8, ptr %7, i64 40
  %11 = load i64, ptr %10, align 8, !tbaa !86
  %12 = getelementptr inbounds nuw ptr, ptr %9, i64 %11
  %.not13.i = icmp eq i64 %11, 0
  br i1 %.not13.i, label %_ZN4Luau12_GLOBAL__N_115FindExprOrLocal5visitEPNS_12AstStatBlockE.exit, label %.lr.ph.i

.lr.ph.i:                                         ; preds = %2
  %13 = getelementptr inbounds nuw i8, ptr %3, i64 12
  br label %14

14:                                               ; preds = %_ZNK4Luau8PositionleERKS0_.exit.thread.i, %.lr.ph.i
  %.014.i = phi ptr [ %9, %.lr.ph.i ], [ %38, %_ZNK4Luau8PositionleERKS0_.exit.thread.i ]
  %15 = load ptr, ptr %.014.i, align 8, !tbaa !87
  %16 = getelementptr inbounds nuw i8, ptr %15, i64 20
  %17 = getelementptr inbounds nuw i8, ptr %15, i64 24
  %18 = load i32, ptr %17, align 4, !tbaa !29
  %19 = load i32, ptr %13, align 4, !tbaa !29
  %20 = icmp eq i32 %18, %19
  %21 = load i32, ptr %16, align 4
  %22 = load i32, ptr %4, align 8
  %23 = icmp eq i32 %21, %22
  %24 = select i1 %20, i1 %23, i1 false
  br i1 %24, label %_ZNK4Luau8PositionleERKS0_.exit.thread.i, label %_ZNK4Luau8PositionleERKS0_.exit.i

_ZNK4Luau8PositionleERKS0_.exit.i:                ; preds = %14
  %25 = icmp ult i32 %18, %19
  %26 = icmp ult i32 %21, %22
  %.0.i.i.i = select i1 %23, i1 %25, i1 %26
  br i1 %.0.i.i.i, label %_ZNK4Luau8PositionleERKS0_.exit.thread.i, label %27

27:                                               ; preds = %_ZNK4Luau8PositionleERKS0_.exit.i
  %28 = getelementptr inbounds nuw i8, ptr %15, i64 12
  %29 = load i32, ptr %28, align 4, !tbaa !80
  %30 = icmp eq i32 %29, %22
  %31 = getelementptr inbounds nuw i8, ptr %15, i64 16
  %32 = load i32, ptr %31, align 4
  %33 = icmp ugt i32 %32, %19
  %34 = icmp ugt i32 %29, %22
  %.0.i.i = select i1 %30, i1 %33, i1 %34
  br i1 %.0.i.i, label %_ZN4Luau12_GLOBAL__N_115FindExprOrLocal5visitEPNS_12AstStatBlockE.exit.loopexit, label %35

35:                                               ; preds = %27
  %36 = load ptr, ptr %15, align 8, !tbaa !8
  %37 = load ptr, ptr %36, align 8
  call void %37(ptr noundef nonnull align 8 dereferenceable(28) %15, ptr noundef nonnull align 8 dereferenceable(32) %3)
  br label %_ZNK4Luau8PositionleERKS0_.exit.thread.i

_ZNK4Luau8PositionleERKS0_.exit.thread.i:         ; preds = %35, %_ZNK4Luau8PositionleERKS0_.exit.i, %14
  %38 = getelementptr inbounds nuw i8, ptr %.014.i, i64 8
  %.not.i = icmp eq ptr %38, %12
  br i1 %.not.i, label %_ZN4Luau12_GLOBAL__N_115FindExprOrLocal5visitEPNS_12AstStatBlockE.exit.loopexit, label %14

_ZN4Luau12_GLOBAL__N_115FindExprOrLocal5visitEPNS_12AstStatBlockE.exit.loopexit: ; preds = %27, %_ZNK4Luau8PositionleERKS0_.exit.thread.i
  %.sroa.03.0.copyload.pre = load ptr, ptr %5, align 8, !tbaa !105
  %.sroa.2.0..sroa_idx.phi.trans.insert = getelementptr inbounds nuw i8, ptr %3, i64 24
  %.sroa.2.0.copyload.pre = load ptr, ptr %.sroa.2.0..sroa_idx.phi.trans.insert, align 8, !tbaa !120
  br label %_ZN4Luau12_GLOBAL__N_115FindExprOrLocal5visitEPNS_12AstStatBlockE.exit

_ZN4Luau12_GLOBAL__N_115FindExprOrLocal5visitEPNS_12AstStatBlockE.exit: ; preds = %_ZN4Luau12_GLOBAL__N_115FindExprOrLocal5visitEPNS_12AstStatBlockE.exit.loopexit, %2
  %.sroa.2.0.copyload = phi ptr [ %.sroa.2.0.copyload.pre, %_ZN4Luau12_GLOBAL__N_115FindExprOrLocal5visitEPNS_12AstStatBlockE.exit.loopexit ], [ null, %2 ]
  %.sroa.03.0.copyload = phi ptr [ %.sroa.03.0.copyload.pre, %_ZN4Luau12_GLOBAL__N_115FindExprOrLocal5visitEPNS_12AstStatBlockE.exit.loopexit ], [ null, %2 ]
  call void @llvm.lifetime.end.p0(i64 32, ptr nonnull %3) #24
  %.fca.0.insert = insertvalue { ptr, ptr } poison, ptr %.sroa.03.0.copyload, 0
  %.fca.1.insert = insertvalue { ptr, ptr } %.fca.0.insert, ptr %.sroa.2.0.copyload, 1
  ret { ptr, ptr } %.fca.1.insert
}